target datalayout = "e-m:e-p270:32:32-p271:32:32-p272:64:64-i64:64-i128:128-f80:128-n8:16:32:64-S128"
target triple = "x86_64-pc-linux-gnu"

%"class.Ipopt::ReferencedObject.base" = type <{ ptr, i32 }>
%"class.std::__cxx11::basic_string" = type { %"struct.std::__cxx11::basic_string<char>::_Alloc_hider", i64, %union.anon }
%"struct.std::__cxx11::basic_string<char>::_Alloc_hider" = type { ptr }
%union.anon = type { i64, [8 x i8] }
%"class.Ipopt::Journal" = type { %"class.Ipopt::ReferencedObject.base", %"class.std::__cxx11::basic_string", [32 x i32] }
%"class.Ipopt::FileJournal" = type { %"class.Ipopt::Journal", ptr }

@stdout = external global ptr, align 8
@stderr = external global ptr, align 8
@_ZTVN5Ipopt16ReferencedObjectE = linkonce_odr unnamed_addr constant { [4 x ptr] } { [4 x ptr] [ptr null, ptr @_ZTIN5Ipopt16ReferencedObjectE, ptr @_ZN5Ipopt16ReferencedObjectD2Ev, ptr @_ZN5Ipopt16ReferencedObjectD0Ev] }, comdat, align 8

; Function Attrs: mustprogress nounwind uwtable
define linkonce_odr void @_ZN5Ipopt16ReferencedObjectD2Ev(ptr noundef nonnull align 8 dereferenceable(12) %0) unnamed_addr #1 comdat align 2 {
  %2 = alloca ptr, align 8
  store ptr %0, ptr %2, align 8
  %3 = load ptr, ptr %2, align 8
  store ptr getelementptr inbounds ({ [4 x ptr] }, ptr @_ZTVN5Ipopt16ReferencedObjectE, i32 0, i32 0, i32 2), ptr %3, align 8
  ret void
}

; Function Attrs: noreturn nounwind uwtable
define linkonce_odr hidden void @__clang_call_terminate(ptr noundef %0) #8 comdat {
  %2 = call ptr @__cxa_begin_catch(ptr %0) #11
  call void @_ZSt9terminatev() #12
  unreachable
}

; Function Attrs: mustprogress nounwind uwtable
define void @_ZN5Ipopt7JournalD2Ev(ptr noundef nonnull align 8 dereferenceable(176) %0) unnamed_addr #1 align 2 {
  %2 = alloca ptr, align 8
  store ptr %0, ptr %2, align 8
  %3 = load ptr, ptr %2, align 8
  store ptr getelementptr inbounds ({ [14 x ptr] }, ptr @_ZTVN5Ipopt7JournalE, i32 0, i32 0, i32 2), ptr %3, align 8
  %4 = getelementptr inbounds %"class.Ipopt::Journal", ptr %3, i32 0, i32 1
  call void @_ZNSt7__cxx1112basic_stringIcSt11char_traitsIcESaIcEED1Ev(ptr noundef nonnull align 8 dereferenceable(32) %4) #11
  call void @_ZN5Ipopt16ReferencedObjectD2Ev(ptr noundef nonnull align 8 dereferenceable(12) %3) #11
  ret void
}

; Function Attrs: mustprogress nounwind uwtable
define void @_ZN5Ipopt11FileJournalD2Ev(ptr noundef nonnull align 8 dereferenceable(184) %0) unnamed_addr #1 align 2 personality ptr @__gxx_personality_v0 {
  %2 = alloca ptr, align 8
  store ptr %0, ptr %2, align 8
  %3 = load ptr, ptr %2, align 8
  store ptr getelementptr inbounds ({ [15 x ptr] }, ptr @_ZTVN5Ipopt11FileJournalE, i32 0, i32 0, i32 2), ptr %3, align 8
  %4 = getelementptr inbounds %"class.Ipopt::FileJournal", ptr %3, i32 0, i32 1
  %5 = load ptr, ptr %4, align 8
  %6 = icmp ne ptr %5, null
  br i1 %6, label %7, label %22

7:                                                ; preds = %1
  %8 = getelementptr inbounds %"class.Ipopt::FileJournal", ptr %3, i32 0, i32 1
  %9 = load ptr, ptr %8, align 8
  %10 = load ptr, ptr @stdout, align 8
  %11 = icmp ne ptr %9, %10
  br i1 %11, label %12, label %22

12:                                               ; preds = %7
  %13 = getelementptr inbounds %"class.Ipopt::FileJournal", ptr %3, i32 0, i32 1
  %14 = load ptr, ptr %13, align 8
  %15 = load ptr, ptr @stderr, align 8
  %16 = icmp ne ptr %14, %15
  br i1 %16, label %17, label %22

17:                                               ; preds = %12
  %18 = getelementptr inbounds %"class.Ipopt::FileJournal", ptr %3, i32 0, i32 1
  %19 = load ptr, ptr %18, align 8
  %20 = invoke i32 @fclose(ptr noundef %19)
          to label %21 unwind label %24

21:                                               ; preds = %17
  br label %22

22:                                               ; preds = %21, %12, %7, %1
  %23 = getelementptr inbounds %"class.Ipopt::FileJournal", ptr %3, i32 0, i32 1
  store ptr null, ptr %23, align 8
  call void @_ZN5Ipopt7JournalD2Ev(ptr noundef nonnull align 8 dereferenceable(176) %3) #11
  ret void

24:                                               ; preds = %17
  %25 = landingpad { ptr, i32 }
          catch ptr null
  %26 = extractvalue { ptr, i32 } %25, 0
  call void @__clang_call_terminate(ptr %26) #12
  unreachable
}