; Function Attrs: mustprogress nounwind uwtable
define void @_ZN5Ipopt11FileJournalD2Ev(ptr noundef nonnull align 8 dereferenceable(184) %0) unnamed_addr #1 align 2 personality ptr @__gxx_personality_v0 {
  store ptr getelementptr inbounds ({ [15 x ptr] }, ptr @_ZTVN5Ipopt11FileJournalE, i64 0, i32 0, i64 2), ptr %0, align 8
  %2 = getelementptr inbounds i8, ptr %0, i64 176
  %3 = load ptr, ptr %2, align 8
  %.not = icmp eq ptr %3, null
  %4 = load ptr, ptr @stdout, align 8
  %.not1 = icmp eq ptr %3, %4
  %or.cond = select i1 %.not, i1 true, i1 %.not1
  %5 = load ptr, ptr @stderr, align 8
  %.not2 = icmp eq ptr %3, %5
  %or.cond3 = select i1 %or.cond, i1 true, i1 %.not2
  br i1 %or.cond3, label %8, label %6

6:                                                ; preds = %1
  %7 = tail call i32 @fclose(ptr noundef nonnull %3)
  br label %8

8:                                                ; preds = %6, %1
  store ptr null, ptr %2, align 8
  store ptr getelementptr inbounds ({ [14 x ptr] }, ptr @_ZTVN5Ipopt7JournalE, i64 0, i32 0, i64 2), ptr %0, align 8
  %9 = getelementptr inbounds i8, ptr %0, i64 16
  tail call void @_ZNSt7__cxx1112basic_stringIcSt11char_traitsIcESaIcEED1Ev(ptr noundef nonnull align 8 dereferenceable(32) %9) #20
  store ptr getelementptr inbounds ({ [4 x ptr] }, ptr @_ZTVN5Ipopt16ReferencedObjectE, i64 0, i32 0, i64 2), ptr %0, align 8
  ret void
}